; Function Attrs: nounwind uwtable
define internal ptr @EVP_hexdigest(ptr noundef %0, ptr readnone captures(none) %1) #0 {
  %3 = alloca [64 x i8], align 16
  call void @llvm.lifetime.start.p0(i64 64, ptr nonnull %3) #9
  %4 = tail call ptr @EVP_MD_CTX_new() #9
  %5 = icmp eq ptr %4, null
  br i1 %5, label %6, label %8

6:                                                ; preds = %2
  %7 = tail call ptr @PyErr_NoMemory() #9
  br label %EVP_hexdigest_impl.exit

8:                                                ; preds = %2
  %9 = getelementptr inbounds nuw i8, ptr %0, i64 24
  %10 = load i8, ptr %9, align 8, !tbaa !59, !range !26, !noundef !27
  %11 = trunc nuw i8 %10 to i1
  br i1 %11, label %12, label %_PyMutex_Lock.exit.i.i

12:                                               ; preds = %8
  %13 = getelementptr inbounds nuw i8, ptr %0, i64 25
  %14 = cmpxchg ptr %13, i8 0, i8 1 seq_cst seq_cst, align 1
  %15 = extractvalue { i8, i1 } %14, 1
  br i1 %15, label %_PyMutex_Lock.exit.i.i, label %16

16:                                               ; preds = %12
  tail call void @PyMutex_Lock(ptr noundef nonnull %13) #9
  br label %_PyMutex_Lock.exit.i.i

_PyMutex_Lock.exit.i.i:                           ; preds = %16, %12, %8
  %17 = getelementptr inbounds nuw i8, ptr %0, i64 16
  %18 = load ptr, ptr %17, align 8, !tbaa !62
  %19 = tail call i32 @EVP_MD_CTX_copy(ptr noundef nonnull %4, ptr noundef %18) #9
  %20 = load i8, ptr %9, align 8, !tbaa !59, !range !26, !noundef !27
  %21 = trunc nuw i8 %20 to i1
  br i1 %21, label %22, label %locked_EVP_MD_CTX_copy.exit.i

22:                                               ; preds = %_PyMutex_Lock.exit.i.i
  %23 = getelementptr inbounds nuw i8, ptr %0, i64 25
  %24 = cmpxchg ptr %23, i8 1, i8 0 seq_cst seq_cst, align 1
  %25 = extractvalue { i8, i1 } %24, 1
  br i1 %25, label %locked_EVP_MD_CTX_copy.exit.i, label %26

26:                                               ; preds = %22
  tail call void @PyMutex_Unlock(ptr noundef nonnull %23) #9
  br label %locked_EVP_MD_CTX_copy.exit.i

locked_EVP_MD_CTX_copy.exit.i:                    ; preds = %26, %22, %_PyMutex_Lock.exit.i.i
  %.not.i = icmp eq i32 %19, 0
  br i1 %.not.i, label %27, label %29

27:                                               ; preds = %locked_EVP_MD_CTX_copy.exit.i
  %28 = load ptr, ptr @PyExc_ValueError, align 8, !tbaa !23
  tail call void (ptr, ptr, ...) @_setException(ptr noundef %28, ptr noundef null)
  br label %EVP_hexdigest_impl.exit

29:                                               ; preds = %locked_EVP_MD_CTX_copy.exit.i
  %30 = tail call ptr @EVP_MD_CTX_get0_md(ptr noundef nonnull %4) #9
  %31 = tail call i32 @EVP_MD_get_size(ptr noundef %30) #9
  %32 = call i32 @EVP_DigestFinal(ptr noundef nonnull %4, ptr noundef nonnull %3, ptr noundef null) #9
  %.not8.i = icmp eq i32 %32, 0
  br i1 %.not8.i, label %33, label %35

33:                                               ; preds = %29
  %34 = load ptr, ptr @PyExc_ValueError, align 8, !tbaa !23
  call void (ptr, ptr, ...) @_setException(ptr noundef %34, ptr noundef null)
  br label %EVP_hexdigest_impl.exit

35:                                               ; preds = %29
  call void @EVP_MD_CTX_free(ptr noundef nonnull %4) #9
  %36 = zext i32 %31 to i64
  %37 = call ptr @_Py_strhex(ptr noundef nonnull %3, i64 noundef %36) #9
  br label %EVP_hexdigest_impl.exit

EVP_hexdigest_impl.exit:                          ; preds = %6, %27, %33, %35
  %.0.i = phi ptr [ null, %6 ], [ %37, %35 ], [ null, %33 ], [ null, %27 ]
  call void @llvm.lifetime.end.p0(i64 64, ptr nonnull %3) #9
  ret ptr %.0.i
}